target datalayout = "e-m:e-p270:32:32-p271:32:32-p272:64:64-i64:64-i128:128-f80:128-n8:16:32:64-S128"
target triple = "x86_64-pc-linux-gnu"

%"class.std::__cxx11::basic_string" = type { %"struct.std::__cxx11::basic_string<char>::_Alloc_hider", i64, %union.anon }
%"struct.std::__cxx11::basic_string<char>::_Alloc_hider" = type { ptr }
%union.anon = type { i64, [8 x i8] }
%"class.perf::Regression" = type { %"class.cv::RNG", %"class.std::__cxx11::basic_string", %"class.std::__cxx11::basic_string", %"class.cv::FileStorage", %"class.cv::FileStorage", %"class.cv::FileNode", %"class.std::__cxx11::basic_string", %"class.std::__cxx11::basic_string" }
%"class.cv::RNG" = type { i64 }
%"class.cv::FileStorage" = type { ptr, i32, %"class.std::__cxx11::basic_string", %"struct.cv::Ptr" }
%"struct.cv::Ptr" = type { %"class.std::shared_ptr" }
%"class.std::shared_ptr" = type { %"class.std::__shared_ptr" }
%"class.std::__shared_ptr" = type { ptr, %"class.std::__shared_count" }
%"class.std::__shared_count" = type { ptr }
%"class.cv::FileNode" = type { ptr, i64, i64 }
%"class.perf::TestBase" = type { %"class.testing::Test", %"class.std::vector.3", %"class.std::vector.3", i32, %"class.std::vector.8", i64, i64, i64, i32, i32, i32, i32, i32, [4 x i8], %"struct.perf::performance_metrics", i8, %"class.perf::TestBase::_declareHelper" }
%"class.testing::Test" = type { ptr, %"class.testing::internal::scoped_ptr" }
%"class.testing::internal::scoped_ptr" = type { ptr }
%"class.std::vector.3" = type { %"struct.std::_Vector_base.4" }
%"struct.std::_Vector_base.4" = type { %"struct.std::_Vector_base<std::pair<int, cv::Size_<int>>, std::allocator<std::pair<int, cv::Size_<int>>>>::_Vector_impl" }
%"struct.std::_Vector_base<std::pair<int, cv::Size_<int>>, std::allocator<std::pair<int, cv::Size_<int>>>>::_Vector_impl" = type { %"struct.std::_Vector_base<std::pair<int, cv::Size_<int>>, std::allocator<std::pair<int, cv::Size_<int>>>>::_Vector_impl_data" }
%"struct.std::_Vector_base<std::pair<int, cv::Size_<int>>, std::allocator<std::pair<int, cv::Size_<int>>>>::_Vector_impl_data" = type { ptr, ptr, ptr }
%"class.std::vector.8" = type { %"struct.std::_Vector_base.9" }
%"struct.std::_Vector_base.9" = type { %"struct.std::_Vector_base<long, std::allocator<long>>::_Vector_impl" }
%"struct.std::_Vector_base<long, std::allocator<long>>::_Vector_impl" = type { %"struct.std::_Vector_base<long, std::allocator<long>>::_Vector_impl_data" }
%"struct.std::_Vector_base<long, std::allocator<long>>::_Vector_impl_data" = type { ptr, ptr, ptr }
%"struct.perf::performance_metrics" = type <{ i64, i64, i32, i32, double, double, double, double, double, double, double, i32, [4 x i8] }>
%"class.perf::TestBase::_declareHelper" = type { ptr }

@__dso_handle = external hidden global i8
@_ZZN4perf10Regression8instanceEvE6single = internal global %"class.perf::Regression" zeroinitializer, align 8
@_ZGVZN4perf10Regression8instanceEvE6single = internal global i64 0, align 8
@_ZN4perf10RegressionC1Ev = hidden unnamed_addr alias void (ptr), ptr @_ZN4perf10RegressionC2Ev
@_ZN4perf10RegressionD1Ev = hidden unnamed_addr alias void (ptr), ptr @_ZN4perf10RegressionD2Ev

; Function Attrs: mustprogress uwtable
define hidden noundef nonnull align 8 dereferenceable(288) ptr @_ZN4perf10Regression8instanceEv() #7 align 2 personality ptr @__gxx_personality_v0 {
  %1 = alloca ptr, align 8
  %2 = alloca i32, align 4
  %3 = load atomic i8, ptr @_ZGVZN4perf10Regression8instanceEvE6single acquire, align 8
  %4 = icmp eq i8 %3, 0
  br i1 %4, label %5, label %11, !prof !20

5:                                                ; preds = %0
  %6 = call i32 @__cxa_guard_acquire(ptr @_ZGVZN4perf10Regression8instanceEvE6single) #3
  %7 = icmp ne i32 %6, 0
  br i1 %7, label %8, label %11

8:                                                ; preds = %5
  invoke void @_ZN4perf10RegressionC1Ev(ptr noundef nonnull align 8 dereferenceable(288) @_ZZN4perf10Regression8instanceEvE6single)
          to label %9 unwind label %12

9:                                                ; preds = %8
  %10 = call i32 @__cxa_atexit(ptr @_ZN4perf10RegressionD1Ev, ptr @_ZZN4perf10Regression8instanceEvE6single, ptr @__dso_handle) #3
  call void @__cxa_guard_release(ptr @_ZGVZN4perf10Regression8instanceEvE6single) #3
  br label %11

11:                                               ; preds = %9, %5, %0
  ret ptr @_ZZN4perf10Regression8instanceEvE6single

12:                                               ; preds = %8
  %13 = landingpad { ptr, i32 }
          cleanup
  %14 = extractvalue { ptr, i32 } %13, 0
  store ptr %14, ptr %1, align 8
  %15 = extractvalue { ptr, i32 } %13, 1
  store i32 %15, ptr %2, align 4
  call void @__cxa_guard_abort(ptr @_ZGVZN4perf10Regression8instanceEvE6single) #3
  br label %16

16:                                               ; preds = %12
  %17 = load ptr, ptr %1, align 8
  %18 = load i32, ptr %2, align 4
  %19 = insertvalue { ptr, i32 } poison, ptr %17, 0
  %20 = insertvalue { ptr, i32 } %19, i32 %18, 1
  resume { ptr, i32 } %20
}

; Function Attrs: mustprogress nounwind uwtable
define linkonce_odr hidden void @_ZN4perf8TestBase11setVerifiedEv(ptr noundef nonnull align 8 dereferenceable(248) %0) #6 comdat align 2 {
  %2 = alloca ptr, align 8
  store ptr %0, ptr %2, align 8, !tbaa !21
  %3 = load ptr, ptr %2, align 8
  %4 = getelementptr inbounds nuw %"class.perf::TestBase", ptr %3, i32 0, i32 15
  store i8 1, ptr %4, align 8, !tbaa !29
  ret void
}

; Function Attrs: mustprogress uwtable
define hidden noundef nonnull align 8 dereferenceable(288) ptr @_ZN4perf10Regression3addEPNS_8TestBaseERKNSt7__cxx1112basic_stringIcSt11char_traitsIcESaIcEEERKN2cv11_InputArrayEdNS_10ERROR_TYPEE(ptr noundef %0, ptr noundef nonnull align 8 dereferenceable(32) %1, ptr noundef nonnull align 8 dereferenceable(24) %2, double noundef %3, i32 noundef %4) #7 align 2 {
  %6 = alloca ptr, align 8
  %7 = alloca ptr, align 8
  %8 = alloca ptr, align 8
  %9 = alloca double, align 8
  %10 = alloca i32, align 4
  store ptr %0, ptr %6, align 8, !tbaa !21
  store ptr %1, ptr %7, align 8, !tbaa !19
  store ptr %2, ptr %8, align 8, !tbaa !23
  store double %3, ptr %9, align 8, !tbaa !25
  store i32 %4, ptr %10, align 4, !tbaa !27
  %11 = load ptr, ptr %6, align 8, !tbaa !21
  %12 = icmp ne ptr %11, null
  br i1 %12, label %13, label %15

13:                                               ; preds = %5
  %14 = load ptr, ptr %6, align 8, !tbaa !21
  call void @_ZN4perf8TestBase11setVerifiedEv(ptr noundef nonnull align 8 dereferenceable(248) %14)
  br label %15

15:                                               ; preds = %13, %5
  %16 = call noundef nonnull align 8 dereferenceable(288) ptr @_ZN4perf10Regression8instanceEv()
  %17 = load ptr, ptr %7, align 8, !tbaa !19
  %18 = load ptr, ptr %8, align 8, !tbaa !23
  %19 = load double, ptr %9, align 8, !tbaa !25
  %20 = load i32, ptr %10, align 4, !tbaa !27
  %21 = call noundef nonnull align 8 dereferenceable(288) ptr @_ZN4perf10RegressionclERKNSt7__cxx1112basic_stringIcSt11char_traitsIcESaIcEEERKN2cv11_InputArrayEdNS_10ERROR_TYPEE(ptr noundef nonnull align 8 dereferenceable(288) %16, ptr noundef nonnull align 8 dereferenceable(32) %17, ptr noundef nonnull align 8 dereferenceable(24) %18, double noundef %19, i32 noundef %20)
  ret ptr %21
}