; Function Attrs: mustprogress uwtable
define hidden noundef nonnull align 8 dereferenceable(288) ptr @_ZN4perf10Regression3addEPNS_8TestBaseERKNSt7__cxx1112basic_stringIcSt11char_traitsIcESaIcEEERKN2cv11_InputArrayEdNS_10ERROR_TYPEE(ptr noundef writeonly %0, ptr noundef nonnull align 8 dereferenceable(32) %1, ptr noundef nonnull align 8 dereferenceable(24) %2, double noundef %3, i32 noundef %4) local_unnamed_addr #5 align 2 personality ptr @__gxx_personality_v0 {
  %.not = icmp eq ptr %0, null
  br i1 %.not, label %8, label %6

6:                                                ; preds = %5
  %7 = getelementptr inbounds nuw i8, ptr %0, i64 232
  store i8 1, ptr %7, align 8, !tbaa !19
  br label %8

8:                                                ; preds = %6, %5
  %9 = load atomic i8, ptr @_ZGVZN4perf10Regression8instanceEvE6single acquire, align 8
  %10 = icmp eq i8 %9, 0
  br i1 %10, label %11, label %_ZN4perf10Regression8instanceEv.exit, !prof !18

11:                                               ; preds = %8
  %12 = tail call i32 @__cxa_guard_acquire(ptr nonnull @_ZGVZN4perf10Regression8instanceEvE6single) #39
  %.not.i = icmp eq i32 %12, 0
  br i1 %.not.i, label %_ZN4perf10Regression8instanceEv.exit, label %13

13:                                               ; preds = %11
  invoke void @_ZN4perf10RegressionC2Ev(ptr noundef nonnull align 8 dereferenceable(288) @_ZZN4perf10Regression8instanceEvE6single)
          to label %14 unwind label %16

14:                                               ; preds = %13
  %15 = tail call i32 @__cxa_atexit(ptr nonnull @_ZN4perf10RegressionD2Ev, ptr nonnull @_ZZN4perf10Regression8instanceEvE6single, ptr nonnull @__dso_handle) #39
  tail call void @__cxa_guard_release(ptr nonnull @_ZGVZN4perf10Regression8instanceEvE6single) #39
  br label %_ZN4perf10Regression8instanceEv.exit

16:                                               ; preds = %13
  %17 = landingpad { ptr, i32 }
          cleanup
  tail call void @__cxa_guard_abort(ptr nonnull @_ZGVZN4perf10Regression8instanceEvE6single) #39
  resume { ptr, i32 } %17

_ZN4perf10Regression8instanceEv.exit:             ; preds = %8, %11, %14
  %18 = tail call noundef nonnull align 8 dereferenceable(288) ptr @_ZN4perf10RegressionclERKNSt7__cxx1112basic_stringIcSt11char_traitsIcESaIcEEERKN2cv11_InputArrayEdNS_10ERROR_TYPEE(ptr noundef nonnull align 8 dereferenceable(288) @_ZZN4perf10Regression8instanceEvE6single, ptr noundef nonnull align 8 dereferenceable(32) %1, ptr noundef nonnull align 8 dereferenceable(24) %2, double noundef %3, i32 noundef %4)
  ret ptr @_ZZN4perf10Regression8instanceEvE6single
}